; Function Attrs: mustprogress uwtable
define void @_ZN5boost10test_tools9tt_detail15print_log_valueIPKwEclERSoS4_(ptr nocapture noundef nonnull readnone align 1 dereferenceable(1) %0, ptr noundef nonnull align 8 dereferenceable(8) %1, ptr noundef %2) local_unnamed_addr #3 align 2 {
  %.not = icmp eq ptr %2, null
  br i1 %.not, label %6, label %4

4:                                                ; preds = %3
  %5 = tail call noundef nonnull align 8 dereferenceable(8) ptr @_ZNSo9_M_insertIPKvEERSoT_(ptr noundef nonnull align 8 dereferenceable(8) %1, ptr noundef nonnull %2)
  br label %8

6:                                                ; preds = %3
  %7 = tail call noundef nonnull align 8 dereferenceable(8) ptr @_ZSt16__ostream_insertIcSt11char_traitsIcEERSt13basic_ostreamIT_T0_ES6_PKS3_l(ptr noundef nonnull align 8 dereferenceable(8) %1, ptr noundef nonnull @.str.4, i64 noundef 13)
  br label %8

8:                                                ; preds = %6, %4
  ret void
}